CCS PCM C Compiler, Version 5.008, 5967               29-jun-22 17:25

               Filename:   D:\Projetos\PIC\PIC\PWM\PWM_Voltimetro\software\main.lst

               ROM used:   999 words (24%)
                           Largest free fragment is 2048
               RAM used:   14 (4%) at main() level
                           54 (14%) worst case
               Stack used: 5 locations
               Stack size: 16

*
0000:  MOVLP  00
0001:  GOTO   29A
0002:  NOP
.................... /* 
....................    Calculos 
....................       ---------------------------------------------------------   
....................       Divisor de tensăo 
....................          R1 = [ (R2 / Vo).Vi ] - R2 
....................          Vo = +5Vcc 
....................          Vi = +48Vcc 
....................           
....................          R1 ao +Vcc 
....................          Centro - saída da mediçăo 
....................          R2 ao GND 
....................       ---------------------------------------------------------     
....................       Freq. do PWM 
....................           
....................          setup_timer_2(T2_DIV_BY_1, 255, 16);   // = 3906,3 Hz - (..,16) năo muda 
....................        
....................          Freq = { 1[ (PR2+1).4.(1/Clock) ] } / T2_DIV_BY 
....................              
....................             PR2(1a255) 
....................             Clock(do osc do PIC - 4Mhz) 
....................             T2_DIV_BY(1, 4 ou 16) 
....................     
.................... */ 
.................... #include <main.h> 
.................... #include <16F1827.h> 
.................... //////// Standard Header file for the PIC16F1827 device //////////////// 
.................... #device PIC16F1827 
0003:  BRW
0004:  RETLW  28
0005:  RETLW  0C
0006:  RETLW  01
0007:  RETLW  06
0008:  BRW
0009:  RETLW  2D
000A:  RETLW  2D
000B:  RETLW  2D
000C:  RETLW  00
000D:  BRW
000E:  RETLW  44
000F:  RETLW  6E
0010:  RETLW  00
0011:  BRW
0012:  RETLW  55
0013:  RETLW  70
0014:  RETLW  00
0015:  DATA 0C,10
0016:  DATA D6,37
0017:  DATA 6C,3A
0018:  DATA E9,36
0019:  DATA 65,3A
001A:  DATA F2,37
001B:  DATA 20,28
001C:  DATA C9,21
001D:  DATA 00,00
001E:  DATA 0C,10
001F:  DATA 25,36
0020:  DATA 75,10
0021:  DATA D6,31
0022:  DATA 63,10
0023:  DATA 8A,06
0024:  DATA A0,12
0025:  DATA EC,3A
0026:  DATA 28,22
0027:  DATA 75,3A
0028:  DATA F9,14
0029:  DATA A0,12
002A:  DATA 73,00
*
0118:  MOVF   0B,W
0119:  MOVWF  34
011A:  BCF    0B.7
011B:  MOVLB  03
011C:  BSF    15.7
011D:  BSF    15.0
011E:  NOP
011F:  NOP
0120:  MOVF   13,W
0121:  ANDLW  7F
0122:  BTFSC  03.2
0123:  GOTO   159
0124:  MOVLB  00
0125:  MOVWF  35
0126:  MOVLB  03
0127:  MOVF   11,W
0128:  MOVLB  00
0129:  MOVWF  36
012A:  MOVLB  03
012B:  MOVF   12,W
012C:  MOVLB  00
012D:  MOVWF  37
012E:  MOVF   35,W
012F:  MOVWF  3D
0130:  CALL   0EC
0131:  MOVF   36,W
0132:  MOVLB  03
0133:  MOVWF  11
0134:  MOVLB  00
0135:  MOVF   37,W
0136:  MOVLB  03
0137:  MOVWF  12
0138:  BSF    15.7
0139:  BSF    15.0
013A:  NOP
013B:  NOP
013C:  RLF    13,W
013D:  RLF    14,W
013E:  ANDLW  7F
013F:  BTFSC  03.2
0140:  GOTO   159
0141:  MOVLB  00
0142:  MOVWF  35
0143:  MOVLB  03
0144:  MOVF   11,W
0145:  MOVLB  00
0146:  MOVWF  36
0147:  MOVLB  03
0148:  MOVF   12,W
0149:  MOVLB  00
014A:  MOVWF  37
014B:  MOVF   35,W
014C:  MOVWF  3D
014D:  CALL   0EC
014E:  MOVF   36,W
014F:  MOVLB  03
0150:  MOVWF  11
0151:  MOVLB  00
0152:  MOVF   37,W
0153:  MOVLB  03
0154:  MOVWF  12
0155:  INCF   11,F
0156:  BTFSC  03.2
0157:  INCF   12,F
0158:  GOTO   11C
0159:  MOVLB  00
015A:  BTFSC  34.7
015B:  BSF    0B.7
015C:  MOVLP  00
015D:  GOTO   2ED (RETURN)
015E:  CLRF   78
015F:  CLRF   79
0160:  CLRF   77
0161:  CLRF   7A
0162:  MOVF   3C,W
0163:  BTFSS  03.2
0164:  GOTO   168
0165:  MOVF   3B,W
0166:  BTFSC  03.2
0167:  GOTO   182
0168:  MOVLW  10
0169:  MOVWF  3D
016A:  BCF    03.0
016B:  RLF    39,F
016C:  RLF    3A,F
016D:  RLF    77,F
016E:  RLF    7A,F
016F:  MOVF   3C,W
0170:  SUBWF  7A,W
0171:  BTFSS  03.2
0172:  GOTO   175
0173:  MOVF   3B,W
0174:  SUBWF  77,W
0175:  BTFSS  03.0
0176:  GOTO   17E
0177:  MOVF   3B,W
0178:  SUBWF  77,F
0179:  BTFSS  03.0
017A:  DECF   7A,F
017B:  MOVF   3C,W
017C:  SUBWF  7A,F
017D:  BSF    03.0
017E:  RLF    78,F
017F:  RLF    79,F
0180:  DECFSZ 3D,F
0181:  GOTO   16A
0182:  RETURN
*
01B2:  MOVLW  10
01B3:  MOVWF  3A
01B4:  CLRF   77
01B5:  CLRF   7A
01B6:  RRF    37,F
01B7:  RRF    36,F
01B8:  BTFSS  03.0
01B9:  GOTO   1C0
01BA:  MOVF   38,W
01BB:  ADDWF  77,F
01BC:  BTFSC  03.0
01BD:  INCF   7A,F
01BE:  MOVF   39,W
01BF:  ADDWF  7A,F
01C0:  RRF    7A,F
01C1:  RRF    77,F
01C2:  RRF    79,F
01C3:  RRF    78,F
01C4:  DECFSZ 3A,F
01C5:  GOTO   1B6
*
01DD:  MOVF   05,W
01DE:  MOVWF  3C
01DF:  MOVF   04,W
01E0:  MOVWF  3B
01E1:  SWAPF  35,W
01E2:  IORLW  F0
01E3:  MOVWF  37
01E4:  ADDWF  37,F
01E5:  ADDLW  E2
01E6:  MOVWF  38
01E7:  ADDLW  32
01E8:  MOVWF  3A
01E9:  MOVF   35,W
01EA:  ANDLW  0F
01EB:  ADDWF  38,F
01EC:  ADDWF  38,F
01ED:  ADDWF  3A,F
01EE:  ADDLW  E9
01EF:  MOVWF  39
01F0:  ADDWF  39,F
01F1:  ADDWF  39,F
01F2:  SWAPF  34,W
01F3:  ANDLW  0F
01F4:  ADDWF  39,F
01F5:  ADDWF  3A,F
01F6:  RLF    39,F
01F7:  RLF    3A,F
01F8:  COMF   3A,F
01F9:  RLF    3A,F
01FA:  MOVF   34,W
01FB:  ANDLW  0F
01FC:  ADDWF  3A,F
01FD:  RLF    37,F
01FE:  MOVLW  07
01FF:  MOVWF  36
0200:  MOVLW  0A
0201:  ADDWF  3A,F
0202:  DECF   39,F
0203:  BTFSS  03.0
0204:  GOTO   201
0205:  ADDWF  39,F
0206:  DECF   38,F
0207:  BTFSS  03.0
0208:  GOTO   205
0209:  ADDWF  38,F
020A:  DECF   37,F
020B:  BTFSS  03.0
020C:  GOTO   209
020D:  ADDWF  37,F
020E:  DECF   36,F
020F:  BTFSS  03.0
0210:  GOTO   20D
0211:  CLRF   05
0212:  MOVLW  36
0213:  MOVWF  04
0214:  MOVLW  07
0215:  ANDWF  3B,W
0216:  BCF    3B.6
0217:  ADDWF  04,F
0218:  MOVLW  3A
0219:  SUBWF  04,W
021A:  BTFSC  03.2
021B:  BSF    3B.6
021C:  MOVF   00,W
021D:  MOVWF  77
021E:  BTFSS  03.2
021F:  GOTO   228
0220:  BTFSC  3B.6
0221:  GOTO   228
0222:  BTFSC  3B.4
0223:  GOTO   237
0224:  BTFSC  3B.3
0225:  GOTO   228
0226:  MOVLW  20
0227:  GOTO   22B
0228:  BSF    3B.3
0229:  BCF    3B.4
022A:  MOVLW  30
022B:  ADDWF  77,F
022C:  MOVF   05,W
022D:  MOVWF  35
022E:  MOVF   04,W
022F:  MOVWF  34
0230:  MOVF   77,W
0231:  MOVWF  3D
0232:  CALL   0EC
0233:  MOVF   35,W
0234:  MOVWF  05
0235:  MOVF   34,W
0236:  MOVWF  04
0237:  ADDFSR 01,FSR0
0238:  BTFSS  3B.6
0239:  GOTO   218
023A:  RETURN
023B:  MOVF   0B,W
023C:  MOVWF  35
023D:  BCF    0B.7
023E:  MOVLB  03
023F:  BSF    15.7
0240:  BSF    15.0
0241:  NOP
0242:  NOP
0243:  BTFSC  03.0
0244:  GOTO   267
0245:  MOVF   13,W
0246:  ANDLW  7F
0247:  MOVLB  00
0248:  MOVWF  36
0249:  MOVLB  03
024A:  MOVF   11,W
024B:  MOVLB  00
024C:  MOVWF  37
024D:  MOVLB  03
024E:  MOVF   12,W
024F:  MOVLB  00
0250:  MOVWF  38
0251:  MOVF   36,W
0252:  MOVWF  3D
0253:  CALL   0EC
0254:  MOVF   37,W
0255:  MOVLB  03
0256:  MOVWF  11
0257:  MOVLB  00
0258:  MOVF   38,W
0259:  MOVLB  03
025A:  MOVWF  12
025B:  BSF    15.7
025C:  BSF    15.0
025D:  NOP
025E:  NOP
025F:  MOVLB  00
0260:  DECFSZ 34,F
0261:  GOTO   263
0262:  GOTO   265
0263:  MOVLB  03
0264:  GOTO   267
0265:  GOTO   285
0266:  MOVLB  03
0267:  RLF    13,W
0268:  RLF    14,W
0269:  ANDLW  7F
026A:  MOVLB  00
026B:  MOVWF  36
026C:  MOVLB  03
026D:  MOVF   11,W
026E:  MOVLB  00
026F:  MOVWF  37
0270:  MOVLB  03
0271:  MOVF   12,W
0272:  MOVLB  00
0273:  MOVWF  38
0274:  MOVF   36,W
0275:  MOVWF  3D
0276:  CALL   0EC
0277:  MOVF   37,W
0278:  MOVLB  03
0279:  MOVWF  11
027A:  MOVLB  00
027B:  MOVF   38,W
027C:  MOVLB  03
027D:  MOVWF  12
027E:  INCF   11,F
027F:  BTFSC  03.2
0280:  INCF   12,F
0281:  BCF    03.0
0282:  MOVLB  00
0283:  DECFSZ 34,F
0284:  GOTO   23E
0285:  BTFSC  35.7
0286:  BSF    0B.7
0287:  RETURN
0288:  MOVF   00,F
0289:  BTFSC  03.2
028A:  GOTO   298
028B:  MOVF   05,W
028C:  MOVWF  35
028D:  MOVF   04,W
028E:  MOVWF  34
028F:  MOVF   00,W
0290:  MOVWF  3D
0291:  CALL   0EC
0292:  MOVF   35,W
0293:  MOVWF  05
0294:  MOVF   34,W
0295:  MOVWF  04
0296:  ADDFSR 01,FSR0
0297:  GOTO   288
0298:  MOVLP  00
0299:  GOTO   3E2 (RETURN)
....................  
.................... #list 
....................  
.................... #device ADC=10 
....................  
.................... #FUSES NOWDT                 	//No Watch Dog Timer 
.................... #FUSES NOMCLR                	//Master Clear pin used for I/O 
.................... #FUSES NOBROWNOUT            	//No brownout reset 
.................... #FUSES NOLVP                 	//No low voltage prgming, B3(PIC16) or B5(PIC18) used for I/O 
....................  
.................... #use delay(internal=4MHz) 
*
0040:  MOVLW  20
0041:  MOVWF  05
0042:  MOVLW  1E
0043:  MOVWF  04
0044:  MOVF   00,W
0045:  BTFSC  03.2
0046:  GOTO   055
0047:  MOVLW  01
0048:  MOVWF  78
0049:  CLRF   77
004A:  DECFSZ 77,F
004B:  GOTO   04A
004C:  DECFSZ 78,F
004D:  GOTO   049
004E:  MOVLW  4A
004F:  MOVWF  77
0050:  DECFSZ 77,F
0051:  GOTO   050
0052:  GOTO   053
0053:  DECFSZ 00,F
0054:  GOTO   047
0055:  RETURN
....................  
....................  
.................... #include <lcd.c> 
.................... /////////////////////////////////////////////////////////////////////////////// 
.................... ////                             LCD.C                                     //// 
.................... ////                 Driver for common LCD modules                         //// 
.................... ////                                                                       //// 
.................... ////  lcd_init()   Must be called before any other function.               //// 
.................... ////                                                                       //// 
.................... ////  lcd_putc(c)  Will display c on the next position of the LCD.         //// 
.................... ////                 \a  Set cursor position to upper left                 //// 
.................... ////                 \f  Clear display, set cursor to upper left           //// 
.................... ////                 \n  Go to start of second line                        //// 
.................... ////                 \b  Move back one position                            //// 
.................... ////              If LCD_EXTENDED_NEWLINE is defined, the \n character     //// 
.................... ////              will erase all remanining characters on the current      //// 
.................... ////              line, and move the cursor to the beginning of the next   //// 
.................... ////              line.                                                    //// 
.................... ////              If LCD_EXTENDED_NEWLINE is defined, the \r character     //// 
.................... ////              will move the cursor to the start of the current         //// 
.................... ////              line.                                                    //// 
.................... ////                                                                       //// 
.................... ////  lcd_gotoxy(x,y) Set write position on LCD (upper left is 1,1)        //// 
.................... ////                                                                       //// 
.................... ////  lcd_getc(x,y)   Returns character at position x,y on LCD             //// 
.................... ////                                                                       //// 
.................... ////  lcd_cursor_on(int1 on)   Turn the cursor on (on=TRUE) or off         //// 
.................... ////              (on=FALSE).                                              //// 
.................... ////                                                                       //// 
.................... ////  lcd_set_cgram_char(w, *p)   Write a custom character to the CGRAM.   //// 
.................... ////                                                                       //// 
.................... ////                                                                       //// 
.................... ////  CONFIGURATION                                                        //// 
.................... ////  The LCD can be configured in one of two ways: a.) port access or     //// 
.................... ////  b.) pin access.  Port access requires the entire 7 bit interface     //// 
.................... ////  connected to one GPIO port, and the data bits (D4:D7 of the LCD)     //// 
.................... ////  connected to sequential pins on the GPIO.  Pin access                //// 
.................... ////  has no requirements, all 7 bits of the control interface can         //// 
.................... ////  can be connected to any GPIO using several ports.                    //// 
.................... ////                                                                       //// 
.................... ////  To use port access, #define LCD_DATA_PORT to the SFR location of     //// 
.................... ////  of the GPIO port that holds the interface, -AND- edit LCD_PIN_MAP    //// 
.................... ////  of this file to configure the pin order.  If you are using a         //// 
.................... ////  baseline PIC (PCB), then LCD_OUTPUT_MAP and LCD_INPUT_MAP also must  //// 
.................... ////  be defined.                                                          //// 
.................... ////                                                                       //// 
.................... ////  Example of port access:                                              //// 
.................... ////     #define LCD_DATA_PORT getenv("SFR:PORTD")                         //// 
.................... ////                                                                       //// 
.................... ////  To use pin access, the following pins must be defined:               //// 
.................... ////     LCD_ENABLE_PIN                                                    //// 
.................... ////     LCD_RS_PIN                                                        //// 
.................... ////     LCD_RW_PIN                                                        //// 
.................... ////     LCD_DATA4                                                         //// 
.................... ////     LCD_DATA5                                                         //// 
.................... ////     LCD_DATA6                                                         //// 
.................... ////     LCD_DATA7                                                         //// 
.................... ////                                                                       //// 
.................... ////  Example of pin access:                                               //// 
.................... ////     #define LCD_ENABLE_PIN  PIN_E0                                    //// 
.................... ////     #define LCD_RS_PIN      PIN_E1                                    //// 
.................... ////     #define LCD_RW_PIN      PIN_E2                                    //// 
.................... ////     #define LCD_DATA4       PIN_D4                                    //// 
.................... ////     #define LCD_DATA5       PIN_D5                                    //// 
.................... ////     #define LCD_DATA6       PIN_D6                                    //// 
.................... ////     #define LCD_DATA7       PIN_D7                                    //// 
.................... ////                                                                       //// 
.................... /////////////////////////////////////////////////////////////////////////////// 
.................... ////        (C) Copyright 1996,2010 Custom Computer Services           //// 
.................... //// This source code may only be used by licensed users of the CCS C  //// 
.................... //// compiler.  This source code may only be distributed to other      //// 
.................... //// licensed users of the CCS C compiler.  No other use, reproduction //// 
.................... //// or distribution is permitted without written permission.          //// 
.................... //// Derivative programs created using this software in object code    //// 
.................... //// form are not restricted in any way.                               //// 
.................... /////////////////////////////////////////////////////////////////////////// 
....................  
.................... #ifndef __LCD_C__ 
.................... #define __LCD_C__ 
....................  
.................... // define the pinout. 
.................... // only required if port access is being used. 
.................... typedef struct   
.................... {                            // This structure is overlayed 
....................    int1 enable;           // on to an I/O port to gain 
....................    int1 rs;               // access to the LCD pins. 
....................    int1 rw;               // The bits are allocated from 
....................    int1 unused;           // low order up.  ENABLE will 
....................    unsigned int     data : 4;         // be LSB pin of that port. 
....................   #if defined(__PCD__)       // The port used will be LCD_DATA_PORT. 
....................    unsigned int    reserved: 8; 
....................   #endif 
.................... } LCD_PIN_MAP; 
....................  
.................... // this is to improve compatability with previous LCD drivers that accepted 
.................... // a define labeled 'use_portb_lcd' that configured the LCD onto port B. 
.................... #if ((defined(use_portb_lcd)) && (use_portb_lcd==TRUE)) 
....................  #define LCD_DATA_PORT getenv("SFR:PORTB") 
.................... #endif 
....................  
.................... #if defined(__PCB__) 
....................    // these definitions only need to be modified for baseline PICs. 
....................    // all other PICs use LCD_PIN_MAP or individual LCD_xxx pin definitions. 
.................... /*                                    EN, RS,   RW,   UNUSED,  DATA  */ 
....................  const LCD_PIN_MAP LCD_OUTPUT_MAP =  {0,  0,    0,    0,       0}; 
....................  const LCD_PIN_MAP LCD_INPUT_MAP =   {0,  0,    0,    0,       0xF}; 
.................... #endif 
....................  
.................... ////////////////////// END CONFIGURATION /////////////////////////////////// 
....................  
.................... #ifndef LCD_ENABLE_PIN 
....................    #define lcd_output_enable(x) lcdlat.enable=x 
....................    #define lcd_enable_tris()   lcdtris.enable=0 
.................... #else 
....................    #define lcd_output_enable(x) output_bit(LCD_ENABLE_PIN, x) 
....................    #define lcd_enable_tris()  output_drive(LCD_ENABLE_PIN) 
.................... #endif 
....................  
.................... #ifndef LCD_RS_PIN 
....................    #define lcd_output_rs(x) lcdlat.rs=x 
....................    #define lcd_rs_tris()   lcdtris.rs=0 
.................... #else 
....................    #define lcd_output_rs(x) output_bit(LCD_RS_PIN, x) 
....................    #define lcd_rs_tris()  output_drive(LCD_RS_PIN) 
.................... #endif 
....................  
.................... #ifndef LCD_RW_PIN 
....................    #define lcd_output_rw(x) lcdlat.rw=x 
....................    #define lcd_rw_tris()   lcdtris.rw=0 
.................... #else 
....................    #define lcd_output_rw(x) output_bit(LCD_RW_PIN, x) 
....................    #define lcd_rw_tris()  output_drive(LCD_RW_PIN) 
.................... #endif 
....................  
.................... // original version of this library incorrectly labeled LCD_DATA0 as LCD_DATA4, 
.................... // LCD_DATA1 as LCD_DATA5, and so on.  this block of code makes the driver 
.................... // compatible with any code written for the original library 
.................... #if (defined(LCD_DATA0) && defined(LCD_DATA1) && defined(LCD_DATA2) && defined(LCD_DATA3) && !defined(LCD_DATA4) && !defined(LCD_DATA5) && !defined(LCD_DATA6) && !defined(LCD_DATA7)) 
....................    #define  LCD_DATA4    LCD_DATA0 
....................    #define  LCD_DATA5    LCD_DATA1 
....................    #define  LCD_DATA6    LCD_DATA2 
....................    #define  LCD_DATA7    LCD_DATA3 
.................... #endif 
....................  
.................... #ifndef LCD_DATA4 
.................... #ifndef LCD_DATA_PORT 
....................    #if defined(__PCB__) 
....................       #define LCD_DATA_PORT      0x06     //portb 
....................       #define set_tris_lcd(x)   set_tris_b(x) 
....................    #else 
....................      #if defined(PIN_D0) 
....................       #define LCD_DATA_PORT      getenv("SFR:PORTD")     //portd 
....................      #else 
....................       #define LCD_DATA_PORT      getenv("SFR:PORTB")     //portb 
....................      #endif 
....................    #endif    
.................... #endif 
....................  
.................... #if defined(__PCB__) 
....................    LCD_PIN_MAP lcd, lcdlat; 
....................    #byte lcd = LCD_DATA_PORT 
....................    #byte lcdlat = LCD_DATA_PORT 
.................... #elif defined(__PCM__) 
....................    LCD_PIN_MAP lcd, lcdlat, lcdtris; 
....................    #byte lcd = LCD_DATA_PORT 
....................    #byte lcdlat = LCD_DATA_PORT 
....................    #byte lcdtris = LCD_DATA_PORT+0x80 
.................... #elif defined(__PCH__) 
....................    LCD_PIN_MAP lcd, lcdlat, lcdtris; 
....................    #byte lcd = LCD_DATA_PORT 
....................    #byte lcdlat = LCD_DATA_PORT+9 
....................    #byte lcdtris = LCD_DATA_PORT+0x12 
.................... #elif defined(__PCD__) 
....................    LCD_PIN_MAP lcd, lcdlat, lcdtris; 
....................    #word lcd = LCD_DATA_PORT 
....................    #word lcdlat = LCD_DATA_PORT+2 
....................    #word lcdtris = LCD_DATA_PORT-0x02 
.................... #endif 
.................... #endif   //LCD_DATA4 not defined 
....................  
.................... #ifndef LCD_TYPE 
....................    #define LCD_TYPE 2           // 0=5x7, 1=5x10, 2=2 lines 
.................... #endif 
....................  
.................... #ifndef LCD_LINE_TWO 
....................    #define LCD_LINE_TWO 0x40    // LCD RAM address for the second line 
.................... #endif 
....................  
.................... #ifndef LCD_LINE_LENGTH 
....................    #define LCD_LINE_LENGTH 20 
.................... #endif 
....................  
.................... unsigned int8 const LCD_INIT_STRING[4] = {0x20 | (LCD_TYPE << 2), 0xc, 1, 6}; 
....................                              // These bytes need to be sent to the LCD 
....................                              // to start it up. 
....................  
.................... unsigned int8 lcd_read_nibble(void); 
....................  
.................... unsigned int8 lcd_read_byte(void) 
.................... { 
....................    unsigned int8 low,high; 
....................  
....................  #if defined(__PCB__) 
....................    set_tris_lcd(LCD_INPUT_MAP); 
....................  #else 
....................   #if (defined(LCD_DATA4) && defined(LCD_DATA5) && defined(LCD_DATA6) && defined(LCD_DATA7)) 
....................    output_float(LCD_DATA4); 
....................    output_float(LCD_DATA5); 
....................    output_float(LCD_DATA6); 
....................    output_float(LCD_DATA7); 
....................   #else 
....................    lcdtris.data = 0xF; 
*
006E:  MOVLW  0F
006F:  MOVLB  01
0070:  ANDWF  0D,W
0071:  IORLW  F0
0072:  MOVWF  0D
....................   #endif 
....................  #endif 
....................          
....................    lcd_output_rw(1); 
0073:  MOVLB  00
0074:  BSF    0D.2
....................    delay_cycles(1); 
0075:  NOP
....................    lcd_output_enable(1); 
0076:  BSF    0D.0
....................    delay_cycles(1); 
0077:  NOP
....................    high = lcd_read_nibble(); 
0078:  CALL   062
0079:  MOVF   78,W
007A:  MOVWF  45
....................        
....................    lcd_output_enable(0); 
007B:  BCF    0D.0
....................    delay_cycles(1); 
007C:  NOP
....................    lcd_output_enable(1); 
007D:  BSF    0D.0
....................    delay_us(1); 
007E:  NOP
....................    low = lcd_read_nibble(); 
007F:  CALL   062
0080:  MOVF   78,W
0081:  MOVWF  44
....................        
....................    lcd_output_enable(0); 
0082:  BCF    0D.0
....................  
....................  #if defined(__PCB__) 
....................    set_tris_lcd(LCD_OUTPUT_MAP); 
....................  #else 
....................   #if (defined(LCD_DATA4) && defined(LCD_DATA5) && defined(LCD_DATA6) && defined(LCD_DATA7)) 
....................    output_drive(LCD_DATA4); 
....................    output_drive(LCD_DATA5); 
....................    output_drive(LCD_DATA6); 
....................    output_drive(LCD_DATA7); 
....................   #else 
....................    lcdtris.data = 0x0; 
0083:  MOVLW  0F
0084:  MOVLB  01
0085:  ANDWF  0D,W
0086:  MOVWF  0D
....................   #endif 
....................  #endif 
....................  
....................    return( (high<<4) | low); 
0087:  MOVLB  00
0088:  SWAPF  45,W
0089:  MOVWF  77
008A:  MOVLW  F0
008B:  ANDWF  77,F
008C:  MOVF   77,W
008D:  IORWF  44,W
008E:  MOVWF  78
.................... } 
....................  
.................... unsigned int8 lcd_read_nibble(void) 
.................... { 
....................   #if (defined(LCD_DATA4) && defined(LCD_DATA5) && defined(LCD_DATA6) && defined(LCD_DATA7)) 
....................    unsigned int8 n = 0x00; 
....................  
....................    /* Read the data port */ 
....................    n |= input(LCD_DATA4); 
....................    n |= input(LCD_DATA5) << 1; 
....................    n |= input(LCD_DATA6) << 2; 
....................    n |= input(LCD_DATA7) << 3; 
....................     
....................    return(n); 
....................   #else 
....................    return(lcd.data); 
*
0062:  MOVF   0D,W
0063:  MOVWF  77
0064:  SWAPF  0D,W
0065:  ANDLW  0F
0066:  MOVWF  78
....................   #endif 
0067:  RETURN
.................... } 
....................  
.................... void lcd_send_nibble(unsigned int8 n) 
.................... { 
....................   #if (defined(LCD_DATA4) && defined(LCD_DATA5) && defined(LCD_DATA6) && defined(LCD_DATA7)) 
....................    /* Write to the data port */ 
....................    output_bit(LCD_DATA4, bit_test(n, 0)); 
....................    output_bit(LCD_DATA5, bit_test(n, 1)); 
....................    output_bit(LCD_DATA6, bit_test(n, 2)); 
....................    output_bit(LCD_DATA7, bit_test(n, 3)); 
....................   #else       
....................    lcdlat.data = n; 
*
0056:  SWAPF  45,W
0057:  ANDLW  F0
0058:  MOVWF  77
0059:  MOVLW  0F
005A:  ANDWF  0D,W
005B:  IORWF  77,W
005C:  MOVWF  0D
....................   #endif 
....................        
....................    delay_cycles(1); 
005D:  NOP
....................    lcd_output_enable(1); 
005E:  BSF    0D.0
....................    delay_us(2); 
005F:  GOTO   060
....................    lcd_output_enable(0); 
0060:  BCF    0D.0
0061:  RETURN
.................... } 
....................  
.................... void lcd_send_byte(unsigned int8 address, unsigned int8 n) 
.................... { 
....................   #if defined(__PCB__) 
....................    set_tris_lcd(LCD_OUTPUT_MAP); 
....................   #else 
....................    lcd_enable_tris(); 
*
0068:  MOVLB  01
0069:  BCF    0D.0
....................    lcd_rs_tris(); 
006A:  BCF    0D.1
....................    lcd_rw_tris(); 
006B:  BCF    0D.2
....................   #endif 
....................  
....................    lcd_output_rs(0); 
006C:  MOVLB  00
006D:  BCF    0D.1
....................    while ( bit_test(lcd_read_byte(),7) ) ; 
*
008F:  MOVF   78,W
0090:  MOVWF  44
0091:  BTFSC  44.7
0092:  GOTO   06E
....................    lcd_output_rs(address); 
0093:  BTFSS  42.0
0094:  BCF    0D.1
0095:  BTFSC  42.0
0096:  BSF    0D.1
....................    delay_cycles(1); 
0097:  NOP
....................    lcd_output_rw(0); 
0098:  BCF    0D.2
....................    delay_cycles(1); 
0099:  NOP
....................    lcd_output_enable(0); 
009A:  BCF    0D.0
....................    lcd_send_nibble(n >> 4); 
009B:  SWAPF  43,W
009C:  MOVWF  44
009D:  MOVLW  0F
009E:  ANDWF  44,F
009F:  MOVF   44,W
00A0:  MOVWF  45
00A1:  CALL   056
....................    lcd_send_nibble(n & 0xf); 
00A2:  MOVF   43,W
00A3:  ANDLW  0F
00A4:  MOVWF  44
00A5:  MOVWF  45
00A6:  CALL   056
00A7:  RETURN
.................... } 
....................  
.................... #if defined(LCD_EXTENDED_NEWLINE) 
.................... unsigned int8 g_LcdX, g_LcdY; 
.................... #endif 
....................  
.................... void lcd_init(void)  
.................... { 
....................    unsigned int8 i; 
....................  
....................  #if defined(__PCB__) 
....................    set_tris_lcd(LCD_OUTPUT_MAP); 
....................  #else 
....................   #if (defined(LCD_DATA4) && defined(LCD_DATA5) && defined(LCD_DATA6) && defined(LCD_DATA7)) 
....................    output_drive(LCD_DATA4); 
....................    output_drive(LCD_DATA5); 
....................    output_drive(LCD_DATA6); 
....................    output_drive(LCD_DATA7); 
....................   #else 
....................    lcdtris.data = 0x0; 
00A8:  MOVLW  0F
00A9:  MOVLB  01
00AA:  ANDWF  0D,W
00AB:  MOVWF  0D
....................   #endif 
....................    lcd_enable_tris(); 
00AC:  BCF    0D.0
....................    lcd_rs_tris(); 
00AD:  BCF    0D.1
....................    lcd_rw_tris(); 
00AE:  BCF    0D.2
....................  #endif 
....................  
....................    lcd_output_rs(0); 
00AF:  MOVLB  00
00B0:  BCF    0D.1
....................    lcd_output_rw(0); 
00B1:  BCF    0D.2
....................    lcd_output_enable(0); 
00B2:  BCF    0D.0
....................      
....................    delay_ms(15); 
00B3:  MOVLW  0F
00B4:  MOVWF  3E
00B5:  CALL   040
....................    for(i=1;i<=3;++i) 
00B6:  MOVLW  01
00B7:  MOVWF  34
00B8:  MOVF   34,W
00B9:  SUBLW  03
00BA:  BTFSS  03.0
00BB:  GOTO   0C4
....................    { 
....................        lcd_send_nibble(3); 
00BC:  MOVLW  03
00BD:  MOVWF  45
00BE:  CALL   056
....................        delay_ms(5); 
00BF:  MOVLW  05
00C0:  MOVWF  3E
00C1:  CALL   040
00C2:  INCF   34,F
00C3:  GOTO   0B8
....................    } 
....................     
....................    lcd_send_nibble(2); 
00C4:  MOVLW  02
00C5:  MOVWF  45
00C6:  CALL   056
....................    delay_ms(5); 
00C7:  MOVLW  05
00C8:  MOVWF  3E
00C9:  CALL   040
....................    for(i=0;i<=3;++i) 
00CA:  CLRF   34
00CB:  MOVF   34,W
00CC:  SUBLW  03
00CD:  BTFSS  03.0
00CE:  GOTO   0D8
....................       lcd_send_byte(0,LCD_INIT_STRING[i]); 
00CF:  MOVF   34,W
00D0:  CALL   003
00D1:  MOVWF  35
00D2:  CLRF   42
00D3:  MOVF   35,W
00D4:  MOVWF  43
00D5:  CALL   068
....................  
....................   #if defined(LCD_EXTENDED_NEWLINE) 
00D6:  INCF   34,F
00D7:  GOTO   0CB
00D8:  MOVLP  00
00D9:  GOTO   2E6 (RETURN)
....................    g_LcdX = 0; 
....................    g_LcdY = 0; 
....................   #endif 
.................... } 
....................  
.................... void lcd_gotoxy(unsigned int8 x, unsigned int8 y) 
.................... { 
....................    unsigned int8 address; 
....................     
....................    if(y!=1) 
00DA:  DECFSZ 3F,W
00DB:  GOTO   0DD
00DC:  GOTO   0E0
....................       address=LCD_LINE_TWO; 
00DD:  MOVLW  40
00DE:  MOVWF  40
00DF:  GOTO   0E1
....................    else 
....................       address=0; 
00E0:  CLRF   40
....................       
....................    address+=x-1; 
00E1:  MOVLW  01
00E2:  SUBWF  3E,W
00E3:  ADDWF  40,F
....................    lcd_send_byte(0,0x80|address); 
00E4:  MOVF   40,W
00E5:  IORLW  80
00E6:  MOVWF  41
00E7:  CLRF   42
00E8:  MOVF   41,W
00E9:  MOVWF  43
00EA:  CALL   068
....................  
....................   #if defined(LCD_EXTENDED_NEWLINE) 
00EB:  RETURN
....................    g_LcdX = x - 1; 
....................    g_LcdY = y - 1; 
....................   #endif 
.................... } 
....................  
.................... void lcd_putc(char c) 
.................... { 
....................    switch (c) 
00EC:  MOVF   3D,W
00ED:  XORLW  07
00EE:  BTFSC  03.2
00EF:  GOTO   0FA
00F0:  XORLW  0B
00F1:  BTFSC  03.2
00F2:  GOTO   0FF
00F3:  XORLW  06
00F4:  BTFSC  03.2
00F5:  GOTO   107
00F6:  XORLW  02
00F7:  BTFSC  03.2
00F8:  GOTO   10D
00F9:  GOTO   112
....................    { 
....................       case '\a'   :  lcd_gotoxy(1,1);     break; 
00FA:  MOVLW  01
00FB:  MOVWF  3E
00FC:  MOVWF  3F
00FD:  CALL   0DA
00FE:  GOTO   117
....................  
....................       case '\f'   :  lcd_send_byte(0,1); 
00FF:  CLRF   42
0100:  MOVLW  01
0101:  MOVWF  43
0102:  CALL   068
....................                      delay_ms(2); 
0103:  MOVLW  02
0104:  MOVWF  3E
0105:  CALL   040
....................                     #if defined(LCD_EXTENDED_NEWLINE) 
....................                      g_LcdX = 0; 
....................                      g_LcdY = 0; 
....................                     #endif 
....................                      break; 
0106:  GOTO   117
....................  
....................      #if defined(LCD_EXTENDED_NEWLINE) 
....................       case '\r'   :  lcd_gotoxy(1, g_LcdY+1);   break; 
....................       case '\n'   : 
....................          while (g_LcdX++ < LCD_LINE_LENGTH) 
....................          { 
....................             lcd_send_byte(1, ' '); 
....................          } 
....................          lcd_gotoxy(1, g_LcdY+2); 
....................          break; 
....................      #else 
....................       case '\n'   : lcd_gotoxy(1,2);        break; 
0107:  MOVLW  01
0108:  MOVWF  3E
0109:  MOVLW  02
010A:  MOVWF  3F
010B:  CALL   0DA
010C:  GOTO   117
....................      #endif 
....................       
....................       case '\b'   : lcd_send_byte(0,0x10);  break; 
010D:  CLRF   42
010E:  MOVLW  10
010F:  MOVWF  43
0110:  CALL   068
0111:  GOTO   117
....................       
....................      #if defined(LCD_EXTENDED_NEWLINE) 
....................       default     :  
....................          if (g_LcdX < LCD_LINE_LENGTH) 
....................          { 
....................             lcd_send_byte(1, c); 
....................             g_LcdX++; 
....................          } 
....................          break; 
....................      #else 
....................       default     : lcd_send_byte(1,c);     break; 
0112:  MOVLW  01
0113:  MOVWF  42
0114:  MOVF   3D,W
0115:  MOVWF  43
0116:  CALL   068
....................      #endif 
....................    } 
0117:  RETURN
.................... } 
....................   
.................... char lcd_getc(unsigned int8 x, unsigned int8 y) 
.................... { 
....................    char value; 
....................  
....................    lcd_gotoxy(x,y); 
....................    while ( bit_test(lcd_read_byte(),7) ); // wait until busy flag is low 
....................    lcd_output_rs(1); 
....................    value = lcd_read_byte(); 
....................    lcd_output_rs(0); 
....................     
....................    return(value); 
.................... } 
....................  
.................... // write a custom character to the ram 
.................... // which is 0-7 and specifies which character array we are modifying. 
.................... // ptr points to an array of 8 bytes, where each byte is the next row of 
.................... //    pixels.  only bits 0-4 are used.  the last row is the cursor row, and 
.................... //    usually you will want to leave this byte 0x00. 
.................... void lcd_set_cgram_char(unsigned int8 which, unsigned int8 *ptr) 
.................... { 
....................    unsigned int i; 
....................  
....................    which <<= 3; 
....................    which &= 0x38; 
....................  
....................    lcd_send_byte(0, 0x40 | which);  //set cgram address 
....................  
....................    for(i=0; i<8; i++) 
....................    { 
....................       lcd_send_byte(1, *ptr++); 
....................    } 
....................    
....................    #if defined(LCD_EXTENDED_NEWLINE) 
....................     lcd_gotoxy(g_LcdX+1, g_LcdY+1);  //set ddram address 
....................    #endif 
.................... } 
....................  
.................... void lcd_cursor_on(int1 on) 
.................... { 
....................    if (on) 
....................    { 
....................       lcd_send_byte(0,0x0F);           //turn LCD cursor ON 
....................    } 
....................    else 
....................    { 
....................       lcd_send_byte(0,0x0C);           //turn LCD cursor OFF 
....................    } 
.................... } 
....................  
.................... #endif 
....................  
....................  
....................  
.................... //#include <16F1827.h> 
.................... //#device ADC = 10 
.................... #fuses NOMCLR INTRC_IO 
.................... #use delay(clock = 8000000) 
*
002B:  MOVLW  20
002C:  MOVWF  05
002D:  MOVLW  14
002E:  MOVWF  04
002F:  MOVF   00,W
0030:  BTFSC  03.2
0031:  GOTO   03F
0032:  MOVLW  02
0033:  MOVWF  78
0034:  CLRF   77
0035:  DECFSZ 77,F
0036:  GOTO   035
0037:  DECFSZ 78,F
0038:  GOTO   034
0039:  MOVLW  97
003A:  MOVWF  77
003B:  DECFSZ 77,F
003C:  GOTO   03B
003D:  DECFSZ 00,F
003E:  GOTO   032
003F:  RETURN
....................   
....................  
....................  
.................... //#use delay (clock=4000000); 
.................... #fuses HS, NOWDT, PUT, BROWNOUT, NOLVP  
.................... /* 
....................    HS: osc a cristal 
....................    NOWDT: No-Watch dog 
.................... */ 
....................  
....................  
.................... // -- Decla variáveis --- 
.................... int16 analogico;                // Var para pegar 10bits(0-1023) da entrada analogica(AN0)-leitura de tensăo de saída 
.................... long memVolt;                   // Armazena média de 100 leituras de tensăo 
.................... long t_Volts;                   // Armazena tensăo em Volts 
....................  
....................  
.................... unsigned int16 duty1 = 511;     // Inicia duty no meio(0 a 1023) 
....................  
....................  
.................... // --- Declara funçőes --- 
.................... int16 Volts(); 
.................... long medias_volt();  
....................  
....................  
.................... void main() 
*
029A:  MOVLW  6A
029B:  MOVLB  01
029C:  MOVWF  19
029D:  MOVLW  01
029E:  MOVLB  00
029F:  MOVWF  27
02A0:  MOVLW  FF
02A1:  MOVWF  26
02A2:  MOVLB  03
02A3:  CLRF   0C
02A4:  CLRF   0D
02A5:  MOVLB  02
02A6:  CLRF   12
02A7:  CLRF   11
02A8:  CLRF   14
02A9:  CLRF   13
.................... { 
....................  
....................    // Setup PWM 
....................    setup_oscillator(OSC_1MHZ);           // Set internal oscillator to 8MHz 
02AA:  MOVLW  58
02AB:  MOVLB  01
02AC:  MOVWF  19
....................    setup_adc(ADC_CLOCK_DIV_8);           // Set ADC conversion time to 8Tosc 
02AD:  BSF    1E.4
02AE:  BCF    1E.5
02AF:  BCF    1E.6
02B0:  BSF    1E.7
02B1:  BSF    1D.0
....................   // setup_adc_ports(AN0_TO_AN1);        // Configure AN0 and AN1 as analog inputs 
....................    setup_adc_ports(sAN0);                // Configure AN0 as analog inputs 
02B2:  BCF    1E.0
02B3:  BCF    1E.1
02B4:  BCF    1E.2
02B5:  MOVLW  01
02B6:  MOVLB  03
02B7:  MOVWF  0C
02B8:  MOVLW  00
02B9:  MOVWF  0D
....................     
....................    setup_ccp1(CCP_PWM);                   // Configure CCP1 as a PWM 
02BA:  MOVLB  02
02BB:  BCF    1D.0
02BC:  BCF    1D.1
02BD:  BCF    1D.2
02BE:  MOVLB  01
02BF:  BCF    0D.3
02C0:  MOVLB  02
02C1:  BCF    0D.3
02C2:  MOVLW  0C
02C3:  MOVLB  05
02C4:  MOVWF  13
02C5:  CLRF   14
02C6:  CLRF   15
02C7:  BCF    1E.0
02C8:  BCF    1E.1
02C9:  MOVLW  01
02CA:  MOVWF  16
....................    //setup_ccp2(CCP_PWM);                 // Configure CCP2 as a PWM 
....................     
....................    /* 
....................       Temos que usar o Timer2 para configurar a frequęncia pwm 
....................       Use a seguinte equaçăo para calcular a frequęncia pwm: 
....................       Período PWM = [(PR2) + 1] • 4 • Tosc • (Valor de pré-escala TMR2) 
....................       Onde a frequęncia PWM é definida como 1 / [período PWM]. 
....................       PR2 é o valor de pré-carga do Timer2, 
....................       Tosc = 1 / (MCU_frequency) O valor de pré-escala TMR2 
....................       pode ser 1, 4 ou 16. 
....................     
....................       PWM = (PR2+1).4.(1/CLOCK) -> Clock $Mhz, depende da config no Proj.Wizard 
....................       Freq = 1/PWM    
....................        
....................       PWM = (250+1).4.(1/4.000.000) 
....................       PWM = 1004.0,000.000.25 
....................       PWM = 0,000.251 
....................        
....................       Freq = 1/PWM 
....................       Freq = 1/0,000.251 
....................       Freq = 3.984hz 
....................        
....................       Osc(hz) = Freq / BY_X 
....................       Osc(hz) = 3984/16 
....................       Osc(hz) = 249hz      
....................        
....................       BY_1, 4 ou 16, 1a255, 16  
....................       setup_timer_2(T2_DIV_BY_1, 255, 16);    = 4khz      (16x250=4000 -> 4khz/By_1 = 4khz) 
....................       setup_timer_2(T2_DIV_BY_4, 250, 16);   = 1khz      (16x250=4000 -> 4khz/By_4 = 1khz) 
....................       setup_timer_2(T2_DIV_BY_16, 250, 16);   = 250hz    (16x250=4000 -> 4khz/By_16 = 250hz) 
....................     */ 
....................     
....................    setup_timer_2(T2_DIV_BY_1, 255, 16);    // Set PWM frequency to 244Hz -  
02CB:  MOVLW  78
02CC:  MOVWF  78
02CD:  IORLW  04
02CE:  MOVLB  00
02CF:  MOVWF  1C
02D0:  MOVLW  FF
02D1:  MOVWF  1B
....................    delay_ms(10);                             // Wait 100ms 
02D2:  MOVLW  0A
02D3:  MOVWF  34
02D4:  CALL   02B
....................  
....................    setup_adc_ports(sAN1);                 // Config porta AN1(analogica) leitura de tensăo 
02D5:  MOVLB  01
02D6:  BCF    1E.0
02D7:  BCF    1E.1
02D8:  BCF    1E.2
02D9:  MOVLW  02
02DA:  MOVLB  03
02DB:  MOVWF  0C
02DC:  MOVLW  00
02DD:  MOVWF  0D
....................    setup_adc(ADC_CLOCK_INTERNAL); 
02DE:  MOVLB  01
02DF:  BSF    1E.4
02E0:  BSF    1E.5
02E1:  BCF    1E.6
02E2:  BSF    1E.7
02E3:  BSF    1D.0
....................  
....................    
....................  
....................     lcd_init(); 
02E4:  MOVLB  00
02E5:  GOTO   0A8
....................     
....................     printf(lcd_putc,"\f Voltimetro PIC");       // imprimir no lcd (\f limpa o lcd) 
02E6:  MOVLW  15
02E7:  MOVLB  03
02E8:  MOVWF  11
02E9:  MOVLW  00
02EA:  MOVWF  12
02EB:  MOVLB  00
02EC:  GOTO   118
....................     delay_ms(50);     // atualizaçăo de tela a cada X ms 
02ED:  MOVLW  32
02EE:  MOVWF  34
02EF:  CALL   02B
....................      
....................  
....................    while(TRUE) 
....................    { 
....................     
....................       int16 tensao = Volts(); 
02F0:  GOTO   183
02F1:  MOVF   79,W
02F2:  MOVWF  29
02F3:  MOVF   78,W
02F4:  MOVWF  28
....................        
....................       // PWM 
....................       set_adc_channel(0);                   // Select channel AN0 
02F5:  MOVLW  00
02F6:  MOVWF  78
02F7:  MOVLB  01
02F8:  MOVF   1D,W
02F9:  ANDLW  83
02FA:  IORWF  78,W
02FB:  MOVWF  1D
....................       delay_ms(10);                         // Wait 1ms 
02FC:  MOVLW  0A
02FD:  MOVLB  00
02FE:  MOVWF  34
02FF:  CALL   02B
....................        
....................        
....................       // Leitura da porta analogica - Tensăo de saída 
....................       set_adc_channel(1);           // Config entrada analogica 1 que sera lida(entrada 0 esta potenciometro ajuste largura de pulso PWM) 
0300:  MOVLW  04
0301:  MOVWF  78
0302:  MOVLB  01
0303:  MOVF   1D,W
0304:  ANDLW  83
0305:  IORWF  78,W
0306:  MOVWF  1D
....................       delay_us(10);                 // tempo para seleçăo 
0307:  MOVLW  06
0308:  MOVWF  77
0309:  DECFSZ 77,F
030A:  GOTO   309
030B:  NOP
....................     
....................     
....................       // Le potenciometro ajustavel 
....................       //duty1 = read_adc();                   // Read from AN0 and store in i - AN0 varia de 0 a 1023 
....................        
....................       delay_ms(10);                         // Wait 1ms 
030C:  MOVLW  0A
030D:  MOVLB  00
030E:  MOVWF  34
030F:  CALL   02B
....................       set_pwm1_duty(duty1);                 // Set pwm1 duty cycle to i 
0310:  MOVF   27,W
0311:  MOVWF  79
0312:  MOVF   26,W
0313:  MOVWF  78
0314:  RRF    79,F
0315:  RRF    78,F
0316:  RRF    79,F
0317:  RRF    78,F
0318:  RRF    79,F
0319:  MOVF   78,W
031A:  MOVLB  05
031B:  MOVWF  11
031C:  RRF    79,F
031D:  RRF    79,W
031E:  ANDLW  30
031F:  MOVWF  77
0320:  MOVF   13,W
0321:  ANDLW  CF
0322:  IORWF  77,W
0323:  MOVWF  13
....................       delay_ms(10);                         // Wait 1ms 
0324:  MOVLW  0A
0325:  MOVLB  00
0326:  MOVWF  34
0327:  CALL   02B
....................  
....................       char msg[10]=""; 
0328:  CLRF   2A
....................  
....................       // Alto ajuste Duty(largura de pulso) cfe tensăo de saida(12V) 
....................       if(tensao == 12 || tensao==13 || tensao==14){           
0329:  MOVF   28,W
032A:  SUBLW  0C
032B:  BTFSS  03.2
032C:  GOTO   330
032D:  MOVF   29,F
032E:  BTFSC  03.2
032F:  GOTO   33E
0330:  MOVF   28,W
0331:  SUBLW  0D
0332:  BTFSS  03.2
0333:  GOTO   337
0334:  MOVF   29,F
0335:  BTFSC  03.2
0336:  GOTO   33E
0337:  MOVF   28,W
0338:  SUBLW  0E
0339:  BTFSS  03.2
033A:  GOTO   352
033B:  MOVF   29,F
033C:  BTFSS  03.2
033D:  GOTO   352
....................          msg="---"; 
033E:  CLRF   34
033F:  CLRF   35
0340:  MOVLW  20
0341:  MOVWF  05
0342:  MOVLW  0A
0343:  MOVWF  04
0344:  MOVF   34,W
0345:  ADDWF  04,F
0346:  MOVLW  00
0347:  ADDWFC 05,F
0348:  MOVF   35,W
0349:  CALL   008
034A:  MOVWF  00
034B:  IORLW  00
034C:  BTFSC  03.2
034D:  GOTO   351
034E:  INCF   35,F
034F:  INCF   34,F
0350:  GOTO   340
....................       }else if(tensao <12 || tensao >14){ 
0351:  GOTO   39C
0352:  MOVF   29,F
0353:  BTFSS  03.2
0354:  GOTO   359
0355:  MOVF   28,W
0356:  SUBLW  0B
0357:  BTFSC  03.0
0358:  GOTO   360
0359:  MOVF   29,F
035A:  BTFSS  03.2
035B:  GOTO   360
035C:  MOVF   28,W
035D:  SUBLW  0E
035E:  BTFSC  03.0
035F:  GOTO   39C
....................       
....................          if(tensao > 14){  
0360:  MOVF   29,F
0361:  BTFSS  03.2
0362:  GOTO   367
0363:  MOVF   28,W
0364:  SUBLW  0E
0365:  BTFSC  03.0
0366:  GOTO   37E
....................             duty1-=10; 
0367:  MOVLW  0A
0368:  SUBWF  26,F
0369:  MOVLW  00
036A:  SUBWFC 27,F
....................             msg="Dn"; 
036B:  CLRF   34
036C:  CLRF   35
036D:  MOVLW  20
036E:  MOVWF  05
036F:  MOVLW  0A
0370:  MOVWF  04
0371:  MOVF   34,W
0372:  ADDWF  04,F
0373:  MOVLW  00
0374:  ADDWFC 05,F
0375:  MOVF   35,W
0376:  CALL   00D
0377:  MOVWF  00
0378:  IORLW  00
0379:  BTFSC  03.2
037A:  GOTO   37E
037B:  INCF   35,F
037C:  INCF   34,F
037D:  GOTO   36D
....................          } 
....................          if(tensao < 12){  
037E:  MOVF   29,F
037F:  BTFSS  03.2
0380:  GOTO   39C
0381:  MOVF   28,W
0382:  SUBLW  0B
0383:  BTFSS  03.0
0384:  GOTO   39C
....................             duty1+=10; 
0385:  MOVLW  0A
0386:  ADDWF  26,F
0387:  MOVLW  00
0388:  ADDWFC 27,F
....................             msg="Up"; 
0389:  CLRF   34
038A:  CLRF   35
038B:  MOVLW  20
038C:  MOVWF  05
038D:  MOVLW  0A
038E:  MOVWF  04
038F:  MOVF   34,W
0390:  ADDWF  04,F
0391:  MOVLW  00
0392:  ADDWFC 05,F
0393:  MOVF   35,W
0394:  CALL   011
0395:  MOVWF  00
0396:  IORLW  00
0397:  BTFSC  03.2
0398:  GOTO   39C
0399:  INCF   35,F
039A:  INCF   34,F
039B:  GOTO   38B
....................          }          
....................           
....................           
....................       }  
....................        
....................       // printf(lcd_putc,"\f %s Vcc \n\r",msg);         
....................       //      delay_ms(500); 
....................           
....................      // Limites 
....................          if(duty1<=20) duty1=10; 
039C:  MOVF   27,F
039D:  BTFSS  03.2
039E:  GOTO   3A6
039F:  MOVF   26,W
03A0:  SUBLW  14
03A1:  BTFSS  03.0
03A2:  GOTO   3A6
03A3:  CLRF   27
03A4:  MOVLW  0A
03A5:  MOVWF  26
....................          if(duty1>=1000) duty1=1000; 
03A6:  MOVF   27,W
03A7:  SUBLW  02
03A8:  BTFSC  03.0
03A9:  GOTO   3B5
03AA:  XORLW  FF
03AB:  BTFSS  03.2
03AC:  GOTO   3B1
03AD:  MOVF   26,W
03AE:  SUBLW  E7
03AF:  BTFSC  03.0
03B0:  GOTO   3B5
03B1:  MOVLW  03
03B2:  MOVWF  27
03B3:  MOVLW  E8
03B4:  MOVWF  26
....................        
....................          
....................       //set_adc_channel(1);                  // Select channel AN1 
....................       //delay_ms(1);                         // Wait 1ms 
....................       // j = read_adc();                      // Read from AN1 and store in j 
....................       //set_pwm1_duty(i);                    // Set pwm1 duty cycle to i 
....................       // set_pwm2_duty(j);                    // Set pwm2 duty cycle to j - năo uso porta 2 
....................       //delay_ms(1);                         // Wait 1ms 
....................          
....................      //analogico = read_adc();     // leitura da entrada analogica       
....................      // printf("\r\n %lu Vcc \n\r Duty %lu",volts(),duty1); 
....................        
....................       printf(lcd_putc,"\f %lu Vcc \n\r %lu(Duty) %s",tensao,duty1,msg);        // Lę a entrada da porta analogica(Volt()) e imprimir no lcd (\f limpa o lcd) 
03B5:  MOVLW  0C
03B6:  MOVWF  3D
03B7:  CALL   0EC
03B8:  MOVLW  20
03B9:  MOVWF  3D
03BA:  CALL   0EC
03BB:  MOVLW  10
03BC:  MOVWF  04
03BD:  MOVF   29,W
03BE:  MOVWF  35
03BF:  MOVF   28,W
03C0:  MOVWF  34
03C1:  CALL   1DD
03C2:  MOVLW  20
03C3:  MOVLB  03
03C4:  MOVWF  11
03C5:  MOVLW  00
03C6:  MOVWF  12
03C7:  BSF    03.0
03C8:  MOVLW  08
03C9:  MOVLB  00
03CA:  MOVWF  34
03CB:  CALL   23B
03CC:  MOVLW  10
03CD:  MOVWF  04
03CE:  MOVF   27,W
03CF:  MOVWF  35
03D0:  MOVF   26,W
03D1:  MOVWF  34
03D2:  CALL   1DD
03D3:  MOVLW  26
03D4:  MOVLB  03
03D5:  MOVWF  11
03D6:  MOVLW  00
03D7:  MOVWF  12
03D8:  BCF    03.0
03D9:  MOVLW  07
03DA:  MOVLB  00
03DB:  MOVWF  34
03DC:  CALL   23B
03DD:  MOVLW  20
03DE:  MOVWF  05
03DF:  MOVLW  0A
03E0:  MOVWF  04
03E1:  GOTO   288
....................       delay_ms(50); 
03E2:  MOVLW  32
03E3:  MOVWF  34
03E4:  CALL   02B
03E5:  GOTO   2F0
....................       
....................     
....................    } 
....................  
.................... } 
....................  
03E6:  SLEEP
.................... int16 volts() { 
....................  
....................    memVolt = medias_volt();          // Recebe o valor médio da tensăo retornando pela funçăo average_volt 
*
01A7:  MOVF   79,W
01A8:  MOVWF  23
01A9:  MOVF   78,W
01AA:  MOVWF  22
....................   // memVolt = read_adc();                    // leitura da entrada analogica 
....................    int16 t_Volts = (memVolt*48)/1023;      // 400 = 40.0 Volt(tensăo máx, com 1 decimal) - Converte valor para Volts(1023 Resoluçăo de 10 bits do conversor AD) 
01AB:  MOVF   23,W
01AC:  MOVWF  37
01AD:  MOVF   22,W
01AE:  MOVWF  36
01AF:  CLRF   39
01B0:  MOVLW  30
01B1:  MOVWF  38
*
01C6:  MOVF   79,W
01C7:  MOVWF  37
01C8:  MOVF   78,W
01C9:  MOVWF  36
01CA:  MOVF   79,W
01CB:  MOVWF  3A
01CC:  MOVF   78,W
01CD:  MOVWF  39
01CE:  MOVLW  03
01CF:  MOVWF  3C
01D0:  MOVLW  FF
01D1:  MOVWF  3B
01D2:  CALL   15E
01D3:  MOVF   79,W
01D4:  MOVWF  35
01D5:  MOVF   78,W
01D6:  MOVWF  34
....................     
....................    /* caso se tenha um Voltímetro até 60V: 
....................     * Reprojetar o divisor de tensăo p/ 60V 
....................     * Alterar calc para: 
....................     * t_Volts = (store*600)/1023;       
....................     */ 
....................     
....................    return(t_Volts); 
01D7:  MOVF   34,W
01D8:  MOVWF  78
01D9:  MOVF   35,W
01DA:  MOVWF  79
01DB:  MOVLP  00
01DC:  GOTO   2F1 (RETURN)
....................  
.................... } 
....................     
.................... long medias_volt(){                 // Funçăo que calcula a média de 100 leituras de tensăo 
*
0183:  CLRF   38
0184:  CLRF   37
....................                                     // garante maior precisăo na medida, se houver alma leitura erronea por ruídos, ele vai corrigir pois retorna a média(100) das leituras 
....................    unsigned char i;                 // Var de iteraçőes 
....................    long volt_armazena = 0;          // var local p/ armazenar o valor de tensăo 
....................     
....................    for(i=0; i<100; i++){                 // Soma as 100 leituras 
0185:  CLRF   36
0186:  MOVF   36,W
0187:  SUBLW  63
0188:  BTFSS  03.0
0189:  GOTO   19B
....................       //volt_armazena += ADC_Read(0);    // Temp_store = temp_store + ADC_Read(0) (Faz soma das 100 leitiras) 
....................       volt_armazena += read_adc();       // leitura da entrada analogica 
018A:  MOVLB  01
018B:  BSF    1D.1
018C:  MOVLW  23
018D:  MOVWF  77
018E:  BTFSS  1D.1
018F:  GOTO   192
0190:  DECFSZ 77,F
0191:  GOTO   18E
0192:  MOVF   1C,W
0193:  MOVWF  7A
0194:  MOVF   1B,W
0195:  MOVLB  00
0196:  ADDWF  37,F
0197:  MOVF   7A,W
0198:  ADDWFC 38,F
0199:  INCF   36,F
019A:  GOTO   186
....................    } 
....................     
....................    return(volt_armazena/100);          // Retorna a media das iteraçőes  
019B:  MOVF   38,W
019C:  MOVWF  3A
019D:  MOVF   37,W
019E:  MOVWF  39
019F:  CLRF   3C
01A0:  MOVLW  64
01A1:  MOVWF  3B
01A2:  CALL   15E
01A3:  MOVF   79,W
01A4:  MOVWF  7A
01A5:  MOVF   79,W
01A6:  MOVWF  79
....................     
....................     
.................... } // end average_temp 
....................  

Configuration Fuses:
   Word  1: 3F82   HS NOWDT PUT NOMCLR NOPROTECT NOCPD BROWNOUT NOCLKOUT IESO FCMEN
   Word  2: 1EFF   NOWRT PLL_SW STVREN BORV19 NODEBUG NOLVP
