CCS PCM C Compiler, Version 5.008, 5967               26-set-22 07:41

               Filename:   D:\Projetos\PIC\GarrafaH2\software\prjGarrafaH2_16F687.lst

               ROM used:   648 words (32%)
                           Largest free fragment is 1400
               RAM used:   27 (21%) at main() level
                           35 (27%) worst case
               Stack used: 7 locations (3 in main + 4 for interrupts)
               Stack size: 8

*
0000:  MOVLW  01
0001:  MOVWF  0A
0002:  GOTO   1F6
0003:  NOP
0004:  MOVWF  7F
0005:  SWAPF  03,W
0006:  CLRF   03
0007:  MOVWF  25
0008:  MOVF   7F,W
0009:  MOVWF  24
000A:  MOVF   0A,W
000B:  MOVWF  2B
000C:  CLRF   0A
000D:  SWAPF  24,F
000E:  MOVF   04,W
000F:  MOVWF  26
0010:  MOVF   20,W
0011:  MOVWF  27
0012:  MOVF   21,W
0013:  MOVWF  28
0014:  MOVF   22,W
0015:  MOVWF  29
0016:  MOVF   23,W
0017:  MOVWF  2A
0018:  BCF    03.7
0019:  BCF    03.5
001A:  MOVLW  8C
001B:  MOVWF  04
001C:  BTFSS  00.0
001D:  GOTO   020
001E:  BTFSC  0C.0
001F:  GOTO   0F2
0020:  MOVF   26,W
0021:  MOVWF  04
0022:  MOVF   27,W
0023:  MOVWF  20
0024:  MOVF   28,W
0025:  MOVWF  21
0026:  MOVF   29,W
0027:  MOVWF  22
0028:  MOVF   2A,W
0029:  MOVWF  23
002A:  MOVF   2B,W
002B:  MOVWF  0A
002C:  SWAPF  25,W
002D:  MOVWF  03
002E:  SWAPF  7F,F
002F:  SWAPF  7F,W
0030:  RETFIE
.................... #include <16F687.h> 
.................... //////// Standard Header file for the PIC16F687 device //////////////// 
.................... #device PIC16F687 
*
008C:  CLRF   20
008D:  CLRF   21
008E:  MOVF   3D,W
008F:  BCF    03.0
0090:  BTFSC  3E.0
0091:  ADDWF  20,F
0092:  RRF    20,F
0093:  RRF    21,F
0094:  BTFSC  3E.1
0095:  ADDWF  20,F
0096:  RRF    20,F
0097:  RRF    21,F
0098:  BTFSC  3E.2
0099:  ADDWF  20,F
009A:  RRF    20,F
009B:  RRF    21,F
009C:  BTFSC  3E.3
009D:  ADDWF  20,F
009E:  RRF    20,F
009F:  RRF    21,F
00A0:  BTFSC  3E.4
00A1:  ADDWF  20,F
00A2:  RRF    20,F
00A3:  RRF    21,F
00A4:  BTFSC  3E.5
00A5:  ADDWF  20,F
00A6:  RRF    20,F
00A7:  RRF    21,F
00A8:  BTFSC  3E.6
00A9:  ADDWF  20,F
00AA:  RRF    20,F
00AB:  RRF    21,F
00AC:  BTFSC  3E.7
00AD:  ADDWF  20,F
00AE:  RRF    20,F
00AF:  RRF    21,F
00B0:  RETURN
....................  
.................... #list 
....................  
.................... //#use delay(clock=4M)     // iAjuste em 15 
.................... #USE DELAY (INTERNAL=4M)   // iAjuste em 3 
*
0031:  MOVLW  41
0032:  MOVWF  04
0033:  MOVF   00,W
0034:  BTFSC  03.2
0035:  GOTO   044
0036:  MOVLW  01
0037:  MOVWF  21
0038:  CLRF   20
0039:  DECFSZ 20,F
003A:  GOTO   039
003B:  DECFSZ 21,F
003C:  GOTO   038
003D:  MOVLW  4A
003E:  MOVWF  20
003F:  DECFSZ 20,F
0040:  GOTO   03F
0041:  GOTO   042
0042:  DECFSZ 00,F
0043:  GOTO   036
0044:  RETURN
.................... //#fuses HS, NOWDT, NOLVP  // Checar....16f1827 funciona, aki deu erro 
.................... //#use standard_io(A)        // Ele "cuida" da direçăo dos pinos- ai a Dir fica defeinida por input ou output 
....................                              // A0 a A5 podem ser usadas como In ou Out,  
.................... //#use standard_io(B)        // B0 a B7 podem ser usadas como In ou Out                            
....................                             
.................... /* 
.................... #define LCD_ENABLE_PIN PIN_B0 
.................... #define LCD_RS_PIN PIN_B1 
.................... #define LCD_RW_PIN PIN_B2 
.................... #define LCD_DATA4 PIN_B4 
.................... #define LCD_DATA5 PIN_B5 
.................... #define LCD_DATA6 PIN_B6 
.................... #define LCD_DATA7 PIN_B7 
.................... */ 
....................  
.................... // #include <lcd.c> 
....................  
.................... // Config pinos p/ PIC16F676 
.................... #define PIN_LED_AZ PIN_A1        // Led-Azul  
.................... #define PIN_BUZZER PIN_A2        // Buzzer 
.................... #define PIN_LED_VD PIN_A4        // Led-Verde(outras funcoes) 
....................  
.................... #define PIN_PteHx PIN_C4         // Ponte H(entrada esquerda) 
.................... #define PIN_PteHy PIN_C5         // Ponte H(entrada direita) 
....................  
.................... #define PIN_BTN PIN_A0           // Botao On/Off 
.................... #define PIN_TimeA pin_C0         // Jump de config Time - Combinacao das 2 forma 4 Tempos diferentes 
.................... #define PIN_TimeB pin_C1         // Jump de config Time 
.................... #define PIN_TimeC pin_C2         // Jump de config Time 
.................... #define PIN_TimeD pin_C3         // Habilita Buzzer 
....................  
.................... /* 
.................... // Config pinos p/ PIC16F687 
.................... #define PIN_LED_AZ PIN_A0        // Led-Azul  
.................... #define PIN_BUZZER PIN_A1        // Buzzer 
.................... #define PIN_LED_VD PIN_A2        // Led-Verde(outras funcoes) 
.................... #define PIN_PteHx PIN_B4         // Ponte H(entrada esquerda) 
.................... #define PIN_PteHy PIN_B5         // Ponte H(entrada direita) 
.................... #define PIN_BTN PIN_A5           // Botao On/Off 
.................... #define PIN_TimeA pin_C0         // Jump de config Time - Combinacao das 2 forma 4 Tempos diferentes 
.................... #define PIN_TimeB pin_C1         // Jump de config Time 
.................... #define PIN_TimeC pin_C2         // Jump de config Time 
.................... #define PIN_TimeD pin_C3         // Habilita Buzzer 
....................  
.................... /* 
.................... // Config pinos p/ PIC16F1827 
.................... #define PIN_LED pin_A0           // Led 
.................... #define PIN_BUZZER pin_A1        // Buzzer 
.................... #define PIN_PteHx pin_B0         // Ponte H(entrada esquerda) 
.................... #define PIN_PteHy pin_B1         // Ponte H(entrada direita) 
.................... #define PIN_BTN pin_B2           // Botao On/Off 
.................... #define PIN_TimeA pin_B6         // Jump de config Time - Combinacao das 2 forma 4 Tempos diferentes 
.................... #define PIN_TimeB pin_B7         // Jump de config Time 
.................... */ 
....................  
....................  
.................... #define Minuto 0 
.................... #define Hora 1 
.................... #define Down 0 
.................... #define Up 1 
.................... #define Nula 2 
.................... #define Nao 0 
.................... #define Sim 1 
.................... #define Off 0 
.................... #define On 1 
.................... #define LED_AZ 0 
.................... #define LED_VD 1 
....................  
....................  
.................... void Clock_PIC(); 
.................... void zerarClock(); 
.................... void check_PressBtn(); 
.................... void buzzer(int iN, int iT);                    // Aciona Buzzer(n.Beeps, Tempo em ms) 
.................... void piscaLED(int iN, int iT, int iQual);       
....................  
.................... void inicializar();        // Inicia variaveis 
.................... void Start();              // Inicia Ciclo 
.................... void Stop();               // Para Ciclo 
....................  
.................... void PoloPN();            // Eletrodos +/- 
.................... void PoloNP();            // Eletrodos -/+ 
.................... void Aterrar();           // Eletrodos -/- 
....................  
.................... int iDecSeg = 0; 
.................... int iSeg = 0; 
.................... int iMin = 0; 
....................  
.................... int iCircuito = Off;       // Ctrl estado atual do circuito: On(1)/Off(0) 
.................... int iBtnPress = 0;         // Ctrl o pressionamento do Btn On/Off 
.................... int iStartCiclo = Nao;     // Ctrl/limita somente 1 start em ciclo p/ evitar descontrole 
.................... int iTempo = 6; 
.................... int iHabExecPoloNP = Sim;   // Ctrl exec.da funcao somente 1 vez p/ ciclo, p/ evitar inversoes continuas 
.................... int iHabExecPoloPN = Sim;   // Ctrl exec.da funcao somente 1 vez p/ ciclo, p/ evitar inversoes continuas 
.................... int iGerandoH2 = Nao;      // Ctrl pisca Led(durante Geracao de H2, eletrodos ativos)  
.................... //char cMsg = '!'; 
.................... int iModoEspera = Nao;    // Ctrl aviso discreto de p/ evitar esquecer - após H2 finalizado 
....................  
....................  
.................... #INT_TIMER1 
.................... void interrupt() 
.................... {    
....................   // output_toggle(PIN_A0);      
....................    set_timer1(0x9e58);    
*
00F2:  CLRF   0E
00F3:  MOVLW  9E
00F4:  MOVWF  0F
00F5:  MOVLW  58
00F6:  MOVWF  0E
....................    Clock_PIC();   // Faz contagem dos tempos hh:mm:ss 
....................  
*
0180:  BCF    0C.0
0181:  BCF    0A.3
0182:  GOTO   020
.................... } 
....................  
.................... void main() 
*
01F6:  MOVF   03,W
01F7:  ANDLW  1F
01F8:  MOVWF  03
01F9:  MOVLW  61
01FA:  BSF    03.5
01FB:  MOVWF  0F
01FC:  MOVF   0F,W
01FD:  BCF    03.5
01FE:  CLRF   2D
01FF:  CLRF   2E
0200:  CLRF   2F
0201:  CLRF   30
0202:  CLRF   31
0203:  CLRF   32
0204:  MOVLW  06
0205:  MOVWF  33
0206:  MOVLW  01
0207:  MOVWF  34
0208:  MOVLW  01
0209:  MOVWF  35
020A:  CLRF   36
020B:  CLRF   37
020C:  BSF    03.6
020D:  BCF    1F.0
020E:  BCF    1F.1
020F:  BCF    1F.2
0210:  BCF    1F.3
0211:  BCF    03.6
0212:  BCF    1F.6
0213:  MOVLW  00
0214:  BSF    03.6
0215:  MOVWF  1E
0216:  CLRF   19
0217:  CLRF   1A
0218:  BSF    03.5
0219:  CLRF   1E
021A:  BCF    03.5
021B:  CLRF   1B
021C:  BCF    03.6
021D:  BCF    0D.5
.................... { 
....................    setup_timer_1 (T1_INTERNAL | T1_DIV_BY_4);            // p/ Clock de 4Mhz 
021E:  MOVLW  25
021F:  MOVWF  10
....................    set_timer1(0x9e58);                                   // 100ms 
0220:  CLRF   0E
0221:  MOVLW  9E
0222:  MOVWF  0F
0223:  MOVLW  58
0224:  MOVWF  0E
....................    enable_interrupts(INT_TIMER1); 
0225:  BSF    03.5
0226:  BSF    0C.0
....................    enable_interrupts(GLOBAL); 
0227:  MOVLW  C0
0228:  BCF    03.5
0229:  IORWF  0B,F
022A:  CLRF   2C
022B:  BTFSC  0B.7
022C:  BSF    2C.7
022D:  BCF    0B.7
....................  
....................     
....................  //  lcd_init(); 
....................   // printf(lcd_putc,"\f Circuito H2");       // imprimir no lcd (\f limpa o lcd) 
....................    delay_ms(50);     // atualiza??o de tela a cada X ms 
022E:  MOVLW  32
022F:  MOVWF  41
0230:  CALL   031
0231:  BTFSC  2C.7
0232:  BSF    0B.7
....................     
....................   
....................    inicializar(); 
0233:  GOTO   183
0234:  CLRF   2C
0235:  BTFSC  0B.7
0236:  BSF    2C.7
0237:  BCF    0B.7
....................    Aterrar();           // Aterrar eletrodos(-/-) 
0238:  CALL   0C7
0239:  BTFSC  2C.7
023A:  BSF    0B.7
....................     
....................    while(TRUE) 
....................    { 
....................          // Faz leitura das config das Dips - 5(PN) + 5(NP) = 10            
....................         if( (input(PIN_TimeA) == 0)&&(input(PIN_TimeB) == 0) ){ iTempo = 3;   } 
023B:  BSF    03.5
023C:  BSF    07.0
023D:  BCF    03.5
023E:  BTFSC  07.0
023F:  GOTO   248
0240:  BSF    03.5
0241:  BSF    07.1
0242:  BCF    03.5
0243:  BTFSC  07.1
0244:  GOTO   248
0245:  MOVLW  03
0246:  MOVWF  33
0247:  GOTO   271
....................         else if( (input(PIN_TimeA) == 0)&&(input(PIN_TimeB) == 1) ){ iTempo = 5;   } 
0248:  BSF    03.5
0249:  BSF    07.0
024A:  BCF    03.5
024B:  BTFSC  07.0
024C:  GOTO   255
024D:  BSF    03.5
024E:  BSF    07.1
024F:  BCF    03.5
0250:  BTFSS  07.1
0251:  GOTO   255
0252:  MOVLW  05
0253:  MOVWF  33
0254:  GOTO   271
....................         else if( (input(PIN_TimeA) == 1)&&(input(PIN_TimeB) == 0) ){ iTempo = 7;   } 
0255:  BSF    03.5
0256:  BSF    07.0
0257:  BCF    03.5
0258:  BTFSS  07.0
0259:  GOTO   262
025A:  BSF    03.5
025B:  BSF    07.1
025C:  BCF    03.5
025D:  BTFSC  07.1
025E:  GOTO   262
025F:  MOVLW  07
0260:  MOVWF  33
0261:  GOTO   271
....................         else if( (input(PIN_TimeA) == 1)&&(input(PIN_TimeB) == 1) ){ iTempo = 10;   } 
0262:  BSF    03.5
0263:  BSF    07.0
0264:  BCF    03.5
0265:  BTFSS  07.0
0266:  GOTO   26F
0267:  BSF    03.5
0268:  BSF    07.1
0269:  BCF    03.5
026A:  BTFSS  07.1
026B:  GOTO   26F
026C:  MOVLW  0A
026D:  MOVWF  33
026E:  GOTO   271
....................         else{ iTempo = 5;   }  
026F:  MOVLW  05
0270:  MOVWF  33
....................          
....................          // printf(lcd_putc,"\f Clock_PIC");       // imprimir no lcd (\f limpa o lcd)   
....................          
....................    //     printf(lcd_putc,"\f %d:%d:%d - %c \n\r  On: %d", iMin, iSeg, iDecSeg, cMsg, iCircuito);        // L? a entrada da porta analogica(Volt()) e imprimir no lcd (\f limpa o lcd) 
....................           
....................           
....................        
....................       check_PressBtn(); 
0271:  GOTO   190
....................       
....................       if(iCircuito == On){    
0272:  DECFSZ 30,W
0273:  GOTO   276
....................             Start();          
0274:  GOTO   1DE
....................        }else{ 
0275:  GOTO   27D
0276:  CLRF   2C
0277:  BTFSC  0B.7
0278:  BSF    2C.7
0279:  BCF    0B.7
....................             Stop();             
027A:  CALL   0D6
027B:  BTFSC  2C.7
027C:  BSF    0B.7
027D:  CLRF   2C
027E:  BTFSC  0B.7
027F:  BSF    2C.7
0280:  BCF    0B.7
....................        } 
....................         
....................         
....................        delay_ms(100); 
0281:  MOVLW  64
0282:  MOVWF  41
0283:  CALL   031
0284:  BTFSC  2C.7
0285:  BSF    0B.7
0286:  GOTO   23B
....................         
....................    }  // While 
....................  
.................... } 
....................  
0287:  SLEEP
.................... void inicializar(){ 
....................  
....................       iDecSeg = 0; 
*
0183:  CLRF   2D
....................       iSeg = 0; 
0184:  CLRF   2E
....................       iMin = 0; 
0185:  CLRF   2F
....................        
....................       iCircuito = Off;       // Ctrl estado atual do circuito: On(1)/Off(0) 
0186:  CLRF   30
....................       iBtnPress = Nao;         // Ctrl o pressionamento do Btn On/Off 
0187:  CLRF   31
....................       iStartCiclo = Nao;     // Ctrl/limita somente 1 start em ciclo p/ evitar descontrole 
0188:  CLRF   32
....................       iTempo = 5; 
0189:  MOVLW  05
018A:  MOVWF  33
....................       iHabExecPoloNP = Sim;   // Ctrl exec.da funcao somente 1 vez p/ ciclo, p/ evitar inversoes continuas 
018B:  MOVLW  01
018C:  MOVWF  34
....................       iHabExecPoloPN = Sim;   // Ctrl exec.da funcao somente 1 vez p/ ciclo, p/ evitar inversoes continuas 
018D:  MOVWF  35
....................      // cMsg = '!'; 
....................       iModoEspera = Nao;    // Ctrl aviso discreto de p/ evitar esquecer - após H2 finalizado 
018E:  CLRF   37
018F:  GOTO   234 (RETURN)
....................       
.................... } 
....................  
.................... void Clock_PIC(){ 
.................... // Faz ctrl de seg, min, hr 
....................         
....................       if(iDecSeg > 9){ 
*
00F7:  MOVF   2D,W
00F8:  SUBLW  09
00F9:  BTFSC  03.0
00FA:  GOTO   111
....................          iDecSeg = 0; 
00FB:  CLRF   2D
....................          iSeg++; 
00FC:  INCF   2E,F
....................          if(iGerandoH2 == Sim){ piscaLed(1, 500, LED_AZ); }    
00FD:  DECFSZ 36,W
00FE:  GOTO   105
00FF:  MOVLW  01
0100:  MOVWF  3D
0101:  MOVLW  F4
0102:  MOVWF  3E
0103:  CLRF   3F
0104:  CALL   045
....................          if( (input(PIN_TimeD) == Sim)){ piscaLed(1, 500, LED_VD); }   // teste saida C 
0105:  BSF    03.5
0106:  BSF    07.3
0107:  BCF    03.5
0108:  BTFSS  07.3
0109:  GOTO   111
010A:  MOVLW  01
010B:  MOVWF  3D
010C:  MOVLW  F4
010D:  MOVWF  3E
010E:  MOVLW  01
010F:  MOVWF  3F
0110:  CALL   045
....................       } 
....................        
....................       if(iSeg > 59){ 
0111:  MOVF   2E,W
0112:  SUBLW  3B
0113:  BTFSC  03.0
0114:  GOTO   118
....................          iDecSeg = 0; 
0115:  CLRF   2D
....................          iSeg = 0; 
0116:  CLRF   2E
....................          iMin++; 
0117:  INCF   2F,F
....................       } 
....................        
....................       if(iMin > 59){ 
0118:  MOVF   2F,W
0119:  SUBLW  3B
011A:  BTFSC  03.0
011B:  GOTO   11F
....................          iDecSeg = 0; 
011C:  CLRF   2D
....................          iSeg = 0; 
011D:  CLRF   2E
....................          iMin = 0;         
011E:  CLRF   2F
....................           
....................       } 
....................        
....................       // INicio de tratamento de processos 
....................       if(iCircuito == On){ 
011F:  DECFSZ 30,W
0120:  GOTO   16F
....................           
....................          if(iSeg < iTempo){ 
0121:  MOVF   33,W
0122:  SUBWF  2E,W
0123:  BTFSC  03.0
0124:  GOTO   12A
....................              PoloPN();    
0125:  CALL   079
....................              delay_ms(10); 
0126:  MOVLW  0A
0127:  MOVWF  41
0128:  CALL   031
....................              break;   
....................                 
....................          } 
0129:  GOTO   16E
....................          else if( (iSeg > iTempo)&&(iSeg < iTempo*2) ){  
012A:  MOVF   2E,W
012B:  SUBWF  33,W
012C:  BTFSC  03.0
012D:  GOTO   149
012E:  BCF    03.0
012F:  RLF    33,W
0130:  SUBWF  2E,W
0131:  BTFSC  03.0
0132:  GOTO   149
....................           
....................              PoloNP();   
....................              delay_ms(10); 
*
0145:  MOVLW  0A
0146:  MOVWF  41
0147:  CALL   031
....................              break;     
....................          } 
0148:  GOTO   16E
....................          else if( (iSeg > iTempo*2)&&(iSeg < iTempo*3) ){  
0149:  BCF    03.0
014A:  RLF    33,W
014B:  SUBWF  2E,W
014C:  BTFSC  03.2
014D:  GOTO   163
014E:  BTFSS  03.0
014F:  GOTO   163
0150:  MOVF   33,W
0151:  MOVWF  3D
0152:  MOVLW  03
0153:  MOVWF  3E
0154:  CALL   08C
0155:  MOVF   21,W
0156:  SUBWF  2E,W
0157:  BTFSC  03.0
0158:  GOTO   163
....................           
....................              buzzer(3, 100);            // Aciona Buzzer(3beep de 100ms), aviso de finalizacao 
0159:  MOVLW  03
015A:  MOVWF  3D
015B:  MOVLW  64
015C:  MOVWF  3E
015D:  CALL   0B1
....................              Stop(); 
015E:  CALL   0D6
....................              iModoEspera = Sim;         // H2 finalizado, Habilita aviso anti-esquecimento 
015F:  MOVLW  01
0160:  MOVWF  37
....................              zerarClock(); 
0161:  CALL   0EE
....................              break; 
....................          } 
0162:  GOTO   16E
....................          else if(iSeg > iTempo*3){  
0163:  MOVF   33,W
0164:  MOVWF  3D
0165:  MOVLW  03
0166:  MOVWF  3E
0167:  CALL   08C
0168:  MOVF   21,W
0169:  SUBWF  2E,W
016A:  BTFSC  03.2
016B:  GOTO   16E
016C:  BTFSC  03.0
....................           
....................             Stop(); 
016D:  CALL   0D6
....................              break;    
....................         } 
....................           
....................       }else{ 
016E:  GOTO   170
....................           Stop(); 
016F:  CALL   0D6
....................           break;       
....................       } 
....................        
....................       // Caso H2 tenha finalizado...aciona aviso de modo espera 
....................       if( (iModoEspera == Sim)&&(iCircuito == Off)){ 
0170:  DECFSZ 37,W
0171:  GOTO   17F
0172:  MOVF   30,F
0173:  BTFSS  03.2
0174:  GOTO   17F
....................          if(iSeg > iTempo){     
0175:  MOVF   2E,W
0176:  SUBWF  33,W
0177:  BTFSC  03.0
0178:  GOTO   17F
....................             buzzer(1, 50);       // aciona buzzer (1beep de 50ms) 
0179:  MOVLW  01
017A:  MOVWF  3D
017B:  MOVLW  32
017C:  MOVWF  3E
017D:  CALL   0B1
....................             zerarClock(); 
017E:  CALL   0EE
....................          } 
....................       } 
....................        
....................    
....................       iDecSeg++;  // Incrementa DecSegundos 
017F:  INCF   2D,F
....................        
.................... } 
....................  
.................... void zerarClock(){ 
....................  
....................       iDecSeg = 0; 
*
00EE:  CLRF   2D
....................       iSeg = 0; 
00EF:  CLRF   2E
....................       iMin = 0;  
00F0:  CLRF   2F
00F1:  RETURN
.................... } 
....................  
....................  
.................... void PoloPN(){ 
....................  
....................       if(iHabExecPoloPN == Sim){  // Condicao evita exec.varias vezes no mesmo ciclo, o q estava causanso inversăo continua 
*
0079:  DECFSZ 35,W
007A:  GOTO   08B
....................        
....................         output_high(PIN_LED_AZ);     // Led Azul (H2 acionado)    
007B:  BSF    03.5
007C:  BCF    05.1
007D:  BCF    03.5
007E:  BSF    05.1
....................         output_low(PIN_PteHx);      // Polos (+/-) 
007F:  BSF    03.5
0080:  BCF    07.4
0081:  BCF    03.5
0082:  BCF    07.4
....................         output_high(PIN_PteHy);   
0083:  BSF    03.5
0084:  BCF    07.5
0085:  BCF    03.5
0086:  BSF    07.5
....................         iHabExecPoloPN = Nao;     // Como ja exec.neste ciclo, bloqueia nova exec. 
0087:  CLRF   35
....................          
....................      //   printf(lcd_putc,"\f %d:%d:%d - Pn \n\r On: %d", iMin, iSeg, iDecSeg, iCircuito);        // L? a entrada da porta analogica(Volt()) e imprimir no lcd (\f limpa o lcd) 
....................        // cMsg = 'P'; 
....................         delay_ms(50); 
0088:  MOVLW  32
0089:  MOVWF  41
008A:  CALL   031
....................       } 
008B:  RETURN
.................... } 
....................  
.................... void PoloNP(){ 
....................  
....................     if(iHabExecPoloNP == Sim){    // Condicao evita exec.varias vezes no mesmo ciclo, o q estava causanso inversăo continua 
*
0133:  DECFSZ 34,W
0134:  GOTO   145
....................         output_high(PIN_LED_AZ);     // Led Azul (H2 acionado)    
0135:  BSF    03.5
0136:  BCF    05.1
0137:  BCF    03.5
0138:  BSF    05.1
....................         output_high(PIN_PteHx);     // Polos (-/+) 
0139:  BSF    03.5
013A:  BCF    07.4
013B:  BCF    03.5
013C:  BSF    07.4
....................         output_low(PIN_PteHy);   
013D:  BSF    03.5
013E:  BCF    07.5
013F:  BCF    03.5
0140:  BCF    07.5
....................         iHabExecPoloNP = Nao;     // Como ja exec.neste ciclo, bloqueia nova exec. 
0141:  CLRF   34
....................          
....................      //   printf(lcd_putc,"\f %d:%d:%d - Np \n\r On: %d", iMin, iSeg, iDecSeg, iCircuito);        // L? a entrada da porta analogica(Volt()) e imprimir no lcd (\f limpa o lcd) 
....................        // cMsg = 'N'; 
....................         delay_ms(50); 
0142:  MOVLW  32
0143:  MOVWF  41
0144:  CALL   031
....................     } 
.................... } 
....................  
.................... void Aterrar(){ 
....................        
....................      output_high(PIN_PteHx);     // 2 eletrodos ao Negativo (-/-) 
*
00C7:  BSF    03.5
00C8:  BCF    07.4
00C9:  BCF    03.5
00CA:  BSF    07.4
....................      output_high(PIN_PteHy);   
00CB:  BSF    03.5
00CC:  BCF    07.5
00CD:  BCF    03.5
00CE:  BSF    07.5
....................      iHabExecPoloNP = Sim;     // Habilita Exec.da funcao 
00CF:  MOVLW  01
00D0:  MOVWF  34
....................      iHabExecPoloPN = Sim; 
00D1:  MOVWF  35
....................       
....................     // printf(lcd_putc,"\f %d:%d:%d - ATR \n\r On: %d", iMin, iSeg, iDecSeg, iCircuito);        // L? a entrada da porta analogica(Volt()) e imprimir no lcd (\f limpa o lcd) 
....................      //cMsg = 'A'; 
....................      delay_ms(50); 
00D2:  MOVLW  32
00D3:  MOVWF  41
00D4:  CALL   031
00D5:  RETURN
.................... } 
....................  
.................... void Start(){ 
....................     
....................      output_high(PIN_LED_AZ);    // Led Azul (H2 acionado)   
*
01DE:  BSF    03.5
01DF:  BCF    05.1
01E0:  BCF    03.5
01E1:  BSF    05.1
....................      output_high(PIN_LED_VD);    // Led Verde - tst (H2 acionado)   
01E2:  BSF    03.5
01E3:  BCF    05.4
01E4:  BCF    03.5
01E5:  BSF    05.4
01E6:  CLRF   2C
01E7:  BTFSC  0B.7
01E8:  BSF    2C.7
01E9:  BCF    0B.7
....................       
....................      PoloPN();   
01EA:  CALL   079
01EB:  BTFSC  2C.7
01EC:  BSF    0B.7
....................      iGerandoH2 = Sim;         // Habilita Piscar-Led durante geracao H2 
01ED:  MOVLW  01
01EE:  MOVWF  36
....................          
....................      if(iStartCiclo == Sim){        // Condicao evita que exec.continuamente - assim exec.somente 1x 
01EF:  DECFSZ 32,W
01F0:  GOTO   1F5
....................           
....................          iStartCiclo = Nao;         // Bloqueia novo start p/ este ciclo 
01F1:  CLRF   32
....................          iDecSeg = 0; 
01F2:  CLRF   2D
....................          iSeg = 0; 
01F3:  CLRF   2E
....................          iMin = 0; 
01F4:  CLRF   2F
....................       } 
01F5:  GOTO   275 (RETURN)
....................       
.................... } 
....................  
.................... void Stop(){ 
....................  
....................       
....................       Aterrar(); 
*
00D6:  CALL   0C7
....................       iGerandoH2 = Nao;             // Desabilita Piscar-Led durante geracao H2  
00D7:  CLRF   36
....................       iCircuito = Off; 
00D8:  CLRF   30
....................        
....................        if(iStartCiclo == Nao){      // Condicao evita que exec.continuamente - assim exec.somente 1x 
00D9:  MOVF   32,F
00DA:  BTFSS  03.2
00DB:  GOTO   0DE
....................             iStartCiclo = Sim;      // Libera novo start p/ este ciclo 
00DC:  MOVLW  01
00DD:  MOVWF  32
....................        } 
....................       if(iModoEspera == Sim){          
00DE:  DECFSZ 37,W
00DF:  GOTO   0E5
....................           output_high(PIN_LED_AZ); 
00E0:  BSF    03.5
00E1:  BCF    05.1
00E2:  BCF    03.5
00E3:  BSF    05.1
....................       }else{ 
00E4:  GOTO   0E9
....................           output_low(PIN_LED_AZ);   // Led Azul (H2 desligado)   
00E5:  BSF    03.5
00E6:  BCF    05.1
00E7:  BCF    03.5
00E8:  BCF    05.1
....................       } 
....................        output_low(PIN_LED_VD);      // Led verde-teste (H2 acionado)   
00E9:  BSF    03.5
00EA:  BCF    05.4
00EB:  BCF    03.5
00EC:  BCF    05.4
00ED:  RETURN
....................       
.................... } 
....................  
....................  
.................... void buzzer(int iN, int iT){ 
....................  // Ativa Buzzzer - Avisa finalizacao dos ciclos com 3 Bips 
....................       for(int bz=0; bz<iN; bz++){ 
*
00B1:  CLRF   3F
00B2:  MOVF   3D,W
00B3:  SUBWF  3F,W
00B4:  BTFSC  03.0
00B5:  GOTO   0C6
....................          output_high(PIN_BUZZER);    // Buzzer (H2 acionado) 
00B6:  BSF    03.5
00B7:  BCF    05.2
00B8:  BCF    03.5
00B9:  BSF    05.2
....................          delay_ms(iT); 
00BA:  MOVF   3E,W
00BB:  MOVWF  41
00BC:  CALL   031
....................          output_low(PIN_BUZZER);    // Buzzer (H2 acionado) 
00BD:  BSF    03.5
00BE:  BCF    05.2
00BF:  BCF    03.5
00C0:  BCF    05.2
....................          delay_ms(iT); 
00C1:  MOVF   3E,W
00C2:  MOVWF  41
00C3:  CALL   031
00C4:  INCF   3F,F
00C5:  GOTO   0B2
....................       } 
00C6:  RETURN
....................  
.................... } 
....................  
.................... void piscaLED(int iN, int iT, int iQual){ 
.................... // Pisca Led durante Geraracao de H2 
....................       for(int p=0; p<iN; p++){ 
*
0045:  CLRF   40
0046:  MOVF   3D,W
0047:  SUBWF  40,W
0048:  BTFSC  03.0
0049:  GOTO   078
....................          if(iQual == LED_AZ){ output_high(PIN_LED_AZ);   } 
004A:  MOVF   3F,F
004B:  BTFSS  03.2
004C:  GOTO   052
004D:  BSF    03.5
004E:  BCF    05.1
004F:  BCF    03.5
0050:  BSF    05.1
0051:  GOTO   05D
....................          else if(iQual == LED_VD){ output_high(PIN_LED_VD);  } 
0052:  DECFSZ 3F,W
0053:  GOTO   059
0054:  BSF    03.5
0055:  BCF    05.4
0056:  BCF    03.5
0057:  BSF    05.4
0058:  GOTO   05D
....................          else{ output_high(PIN_LED_AZ);   } 
0059:  BSF    03.5
005A:  BCF    05.1
005B:  BCF    03.5
005C:  BSF    05.1
....................          delay_ms(iT); 
005D:  MOVF   3E,W
005E:  MOVWF  41
005F:  CALL   031
....................          if(iQual == LED_AZ){ output_low(PIN_LED_AZ);   } 
0060:  MOVF   3F,F
0061:  BTFSS  03.2
0062:  GOTO   068
0063:  BSF    03.5
0064:  BCF    05.1
0065:  BCF    03.5
0066:  BCF    05.1
0067:  GOTO   073
....................          else if(iQual == LED_VD){ output_low(PIN_LED_VD);  } 
0068:  DECFSZ 3F,W
0069:  GOTO   06F
006A:  BSF    03.5
006B:  BCF    05.4
006C:  BCF    03.5
006D:  BCF    05.4
006E:  GOTO   073
....................          else{ output_low(PIN_LED_AZ);   } 
006F:  BSF    03.5
0070:  BCF    05.1
0071:  BCF    03.5
0072:  BCF    05.1
....................          delay_ms(iT); 
0073:  MOVF   3E,W
0074:  MOVWF  41
0075:  CALL   031
0076:  INCF   40,F
0077:  GOTO   046
....................       } 
0078:  RETURN
.................... } 
....................  
.................... void check_PressBtn(){ 
*
0190:  MOVLW  02
0191:  MOVWF  38
....................    // Verifica se botao foi solto(presenca de borda de subida) 
....................     
....................       int iBorda = Nula; 
....................     
....................       if( (iBtnPress == Nao)&&(input(PIN_BTN) == 0) ){  iBorda = Nula; iBtnPress = 0;} 
0192:  MOVF   31,F
0193:  BTFSS  03.2
0194:  GOTO   19E
0195:  BSF    03.5
0196:  BSF    05.0
0197:  BCF    03.5
0198:  BTFSC  05.0
0199:  GOTO   19E
019A:  MOVLW  02
019B:  MOVWF  38
019C:  CLRF   31
019D:  GOTO   1C3
....................       else if( (iBtnPress == Nao)&&(input(PIN_BTN) == 1) ){ iBorda = Down; iBtnPress = 1; } 
019E:  MOVF   31,F
019F:  BTFSS  03.2
01A0:  GOTO   1AA
01A1:  BSF    03.5
01A2:  BSF    05.0
01A3:  BCF    03.5
01A4:  BTFSS  05.0
01A5:  GOTO   1AA
01A6:  CLRF   38
01A7:  MOVLW  01
01A8:  MOVWF  31
01A9:  GOTO   1C3
....................       else if( (iBtnPress == Sim)&&(input(PIN_BTN) == 0) ){ iBorda = Up; iBtnPress = 0; }          // Detectado Borda de subida aqui 
01AA:  DECFSZ 31,W
01AB:  GOTO   1B5
01AC:  BSF    03.5
01AD:  BSF    05.0
01AE:  BCF    03.5
01AF:  BTFSC  05.0
01B0:  GOTO   1B5
01B1:  MOVLW  01
01B2:  MOVWF  38
01B3:  CLRF   31
01B4:  GOTO   1C3
....................       else if( (iBtnPress == Sim)&&(input(PIN_BTN) == 1) ){ iBorda = Down;  iBtnPress = 1;} 
01B5:  DECFSZ 31,W
01B6:  GOTO   1C0
01B7:  BSF    03.5
01B8:  BSF    05.0
01B9:  BCF    03.5
01BA:  BTFSS  05.0
01BB:  GOTO   1C0
01BC:  CLRF   38
01BD:  MOVLW  01
01BE:  MOVWF  31
01BF:  GOTO   1C3
....................       else{ iBorda = Nula; iBtnPress = 0; } 
01C0:  MOVLW  02
01C1:  MOVWF  38
01C2:  CLRF   31
....................        
....................        
....................       if( iBorda == Up ){    
01C3:  DECFSZ 38,W
01C4:  GOTO   1DD
....................        
....................             // caso Circuito esteja em modo espera(H2 pronto), o pressionar do botăo somente tira de modo espera, 1 segundo pressionar vai ligar o circuito 
....................            if(iModoEspera == Sim){   
01C5:  DECFSZ 37,W
01C6:  GOTO   1D4
....................                   iModoEspera = Nao;      // Tira de modo espera 
01C7:  CLRF   37
01C8:  CLRF   2C
01C9:  BTFSC  0B.7
01CA:  BSF    2C.7
01CB:  BCF    0B.7
....................                   buzzer(2, 50);          // Avisa que recebeu cmd 
01CC:  MOVLW  02
01CD:  MOVWF  3D
01CE:  MOVLW  32
01CF:  MOVWF  3E
01D0:  CALL   0B1
01D1:  BTFSC  2C.7
01D2:  BSF    0B.7
....................            }else{ 
01D3:  GOTO   1DD
....................                if(iCircuito == On){ iCircuito = Off; } 
01D4:  DECFSZ 30,W
01D5:  GOTO   1D8
01D6:  CLRF   30
01D7:  GOTO   1DD
....................                else if(iCircuito == Off){ iCircuito = On; } 
01D8:  MOVF   30,F
01D9:  BTFSS  03.2
01DA:  GOTO   1DD
01DB:  MOVLW  01
01DC:  MOVWF  30
....................            } 
....................       } 
01DD:  GOTO   272 (RETURN)
....................         
....................       
.................... } 
....................  
....................  
....................  

Configuration Fuses:
   Word  1: 3FE4   INTRC_IO NOWDT PUT MCLR NOPROTECT NOCPD BROWNOUT IESO FCMEN
